target datalayout = "e-m:e-p270:32:32-p271:32:32-p272:64:64-i64:64-i128:128-f80:128-n8:16:32:64-S128"
target triple = "x86_64-pc-linux-gnu"

@hf_shim6_psrc = internal global i32 0, align 4
@hf_shim6_pdst = internal global i32 0, align 4
@hf_shim6_pnonce = internal global i32 0, align 4
@hf_shim6_pdata = internal global i32 0, align 4
@ett_shim6_probes_sent = internal global i32 0, align 4
@ett_shim6_probes_rcvd = internal global i32 0, align 4
@ett_shim6_probe_sent = internal global i32 0, align 4
@ett_shim6_probe_rcvd = internal global i32 0, align 4
@.str.150 = private unnamed_addr constant [9 x i8] c"Probe %u\00", align 1

; Function Attrs: null_pointer_is_valid sspstrong uwtable
define internal void @dissect_shim6_probes(ptr noundef %0, ptr noundef %1, i32 noundef %2, ptr noundef %3, i32 noundef %4, i1 noundef zeroext %5) #0 {
  %7 = alloca ptr, align 8
  %8 = alloca ptr, align 8
  %9 = alloca i32, align 4
  %10 = alloca ptr, align 8
  %11 = alloca i32, align 4
  %12 = alloca i8, align 1
  %13 = alloca ptr, align 8
  %14 = alloca ptr, align 8
  %15 = alloca i32, align 4
  %16 = alloca i32, align 4
  %17 = alloca i32, align 4
  store ptr %0, ptr %7, align 8
  store ptr %1, ptr %8, align 8
  store i32 %2, ptr %9, align 4
  store ptr %3, ptr %10, align 8
  store i32 %4, ptr %11, align 4
  %18 = zext i1 %5 to i8
  store i8 %18, ptr %12, align 1
  call void @llvm.lifetime.start.p0(i64 8, ptr %13) #4
  call void @llvm.lifetime.start.p0(i64 8, ptr %14) #4
  call void @llvm.lifetime.start.p0(i64 4, ptr %15) #4
  call void @llvm.lifetime.start.p0(i64 4, ptr %16) #4
  call void @llvm.lifetime.start.p0(i64 4, ptr %17) #4
  %19 = load i8, ptr %12, align 1, !range !8, !noundef !9
  %20 = trunc i8 %19 to i1
  br i1 %20, label %21, label %24

21:                                               ; preds = %6
  %22 = load i32, ptr @ett_shim6_probes_rcvd, align 4
  store i32 %22, ptr %15, align 4
  %23 = load i32, ptr @ett_shim6_probe_rcvd, align 4
  store i32 %23, ptr %16, align 4
  br label %27

24:                                               ; preds = %6
  %25 = load i32, ptr @ett_shim6_probes_sent, align 4
  store i32 %25, ptr %15, align 4
  %26 = load i32, ptr @ett_shim6_probe_sent, align 4
  store i32 %26, ptr %16, align 4
  br label %27

27:                                               ; preds = %24, %21
  %28 = load ptr, ptr %7, align 8
  %29 = load ptr, ptr %8, align 8
  %30 = load i32, ptr %9, align 4
  %31 = load i32, ptr %11, align 4
  %32 = mul i32 40, %31
  %33 = load i32, ptr %15, align 4
  %34 = load ptr, ptr %10, align 8
  %35 = call ptr @proto_tree_add_subtree(ptr noundef %28, ptr noundef %29, i32 noundef %30, i32 noundef %32, i32 noundef %33, ptr noundef null, ptr noundef %34)
  store ptr %35, ptr %13, align 8
  store i32 0, ptr %17, align 4
  br label %36

36:                                               ; preds = %76, %27
  %37 = load i32, ptr %17, align 4
  %38 = load i32, ptr %11, align 4
  %39 = icmp ult i32 %37, %38
  br i1 %39, label %40, label %79

40:                                               ; preds = %36
  %41 = load ptr, ptr %13, align 8
  %42 = load ptr, ptr %8, align 8
  %43 = load i32, ptr %9, align 4
  %44 = load i32, ptr %16, align 4
  %45 = load i32, ptr %17, align 4
  %46 = add i32 %45, 1
  %47 = call ptr (ptr, ptr, i32, i32, i32, ptr, ptr, ...) @proto_tree_add_subtree_format(ptr noundef %41, ptr noundef %42, i32 noundef %43, i32 noundef 40, i32 noundef %44, ptr noundef null, ptr noundef @.str.150, i32 noundef %46)
  store ptr %47, ptr %14, align 8
  %48 = load ptr, ptr %14, align 8
  %49 = load i32, ptr @hf_shim6_psrc, align 4
  %50 = load ptr, ptr %8, align 8
  %51 = load i32, ptr %9, align 4
  %52 = call ptr @proto_tree_add_item(ptr noundef %48, i32 noundef %49, ptr noundef %50, i32 noundef %51, i32 noundef 16, i32 noundef 0)
  %53 = load i32, ptr %9, align 4
  %54 = add i32 %53, 16
  store i32 %54, ptr %9, align 4
  %55 = load ptr, ptr %14, align 8
  %56 = load i32, ptr @hf_shim6_pdst, align 4
  %57 = load ptr, ptr %8, align 8
  %58 = load i32, ptr %9, align 4
  %59 = call ptr @proto_tree_add_item(ptr noundef %55, i32 noundef %56, ptr noundef %57, i32 noundef %58, i32 noundef 16, i32 noundef 0)
  %60 = load i32, ptr %9, align 4
  %61 = add i32 %60, 16
  store i32 %61, ptr %9, align 4
  %62 = load ptr, ptr %14, align 8
  %63 = load i32, ptr @hf_shim6_pnonce, align 4
  %64 = load ptr, ptr %8, align 8
  %65 = load i32, ptr %9, align 4
  %66 = call ptr @proto_tree_add_item(ptr noundef %62, i32 noundef %63, ptr noundef %64, i32 noundef %65, i32 noundef 4, i32 noundef 0)
  %67 = load i32, ptr %9, align 4
  %68 = add i32 %67, 4
  store i32 %68, ptr %9, align 4
  %69 = load ptr, ptr %14, align 8
  %70 = load i32, ptr @hf_shim6_pdata, align 4
  %71 = load ptr, ptr %8, align 8
  %72 = load i32, ptr %9, align 4
  %73 = call ptr @proto_tree_add_item(ptr noundef %69, i32 noundef %70, ptr noundef %71, i32 noundef %72, i32 noundef 4, i32 noundef 0)
  %74 = load i32, ptr %9, align 4
  %75 = add i32 %74, 4
  store i32 %75, ptr %9, align 4
  br label %76

76:                                               ; preds = %40
  %77 = load i32, ptr %17, align 4
  %78 = add i32 %77, 1
  store i32 %78, ptr %17, align 4
  br label %36, !llvm.loop !10

79:                                               ; preds = %36
  call void @llvm.lifetime.end.p0(i64 4, ptr %17) #4
  call void @llvm.lifetime.end.p0(i64 4, ptr %16) #4
  call void @llvm.lifetime.end.p0(i64 4, ptr %15) #4
  call void @llvm.lifetime.end.p0(i64 8, ptr %14) #4
  call void @llvm.lifetime.end.p0(i64 8, ptr %13) #4
  ret void
}