; Function Attrs: null_pointer_is_valid sspstrong uwtable
define internal fastcc void @dissect_shim6_probes(ptr noundef %0, ptr noundef %1, i32 noundef range(i32 15, 616) %2, ptr noundef %3, i32 noundef range(i32 1, 16) %4, i1 noundef zeroext %5) unnamed_addr #0 {
  %ett_shim6_probe_rcvd.val = load i32, ptr @ett_shim6_probe_rcvd, align 4
  %ett_shim6_probe_sent.val = load i32, ptr @ett_shim6_probe_sent, align 4
  %.030 = select i1 %5, i32 %ett_shim6_probe_rcvd.val, i32 %ett_shim6_probe_sent.val
  %ett_shim6_probes_rcvd.val = load i32, ptr @ett_shim6_probes_rcvd, align 4
  %ett_shim6_probes_sent.val = load i32, ptr @ett_shim6_probes_sent, align 4
  %.031 = select i1 %5, i32 %ett_shim6_probes_rcvd.val, i32 %ett_shim6_probes_sent.val
  %7 = mul nuw nsw i32 %4, 40
  %8 = tail call ptr @proto_tree_add_subtree(ptr noundef %0, ptr noundef %1, i32 noundef %2, i32 noundef %7, i32 noundef %.031, ptr noundef null, ptr noundef %3)
  br label %9

9:                                                ; preds = %6, %9
  %.034 = phi i32 [ 0, %6 ], [ %10, %9 ]
  %.03233 = phi i32 [ %2, %6 ], [ %23, %9 ]
  %10 = add nuw nsw i32 %.034, 1
  %11 = tail call ptr (ptr, ptr, i32, i32, i32, ptr, ptr, ...) @proto_tree_add_subtree_format(ptr noundef %8, ptr noundef %1, i32 noundef %.03233, i32 noundef 40, i32 noundef %.030, ptr noundef null, ptr noundef nonnull @.str.150, i32 noundef %10)
  %12 = load i32, ptr @hf_shim6_psrc, align 4
  %13 = tail call ptr @proto_tree_add_item(ptr noundef %11, i32 noundef %12, ptr noundef %1, i32 noundef %.03233, i32 noundef 16, i32 noundef 0)
  %14 = add nuw nsw i32 %.03233, 16
  %15 = load i32, ptr @hf_shim6_pdst, align 4
  %16 = tail call ptr @proto_tree_add_item(ptr noundef %11, i32 noundef %15, ptr noundef %1, i32 noundef %14, i32 noundef 16, i32 noundef 0)
  %17 = add nuw nsw i32 %.03233, 32
  %18 = load i32, ptr @hf_shim6_pnonce, align 4
  %19 = tail call ptr @proto_tree_add_item(ptr noundef %11, i32 noundef %18, ptr noundef %1, i32 noundef %17, i32 noundef 4, i32 noundef 0)
  %20 = add nuw nsw i32 %.03233, 36
  %21 = load i32, ptr @hf_shim6_pdata, align 4
  %22 = tail call ptr @proto_tree_add_item(ptr noundef %11, i32 noundef %21, ptr noundef %1, i32 noundef %20, i32 noundef 4, i32 noundef 0)
  %23 = add nuw nsw i32 %.03233, 40
  %exitcond.not = icmp eq i32 %10, %4
  br i1 %exitcond.not, label %24, label %9, !llvm.loop !11

24:                                               ; preds = %9
  ret void
}